; Function Attrs: nounwind uwtable
define ptr @l_Lean_KVMap_get___rarg(ptr noundef %0, ptr noundef %1, ptr noundef %2, ptr noundef %3) local_unnamed_addr #0 {
  %5 = tail call ptr @l_Lean_KVMap_findCore(ptr noundef %1, ptr noundef %2)
  %6 = ptrtoint ptr %5 to i64
  %7 = and i64 %6, 1
  %.not.i35 = icmp eq i64 %7, 0
  br i1 %.not.i35, label %11, label %8

8:                                                ; preds = %4
  %9 = lshr i64 %6, 1
  %10 = trunc i64 %9 to i32
  br label %lean_obj_tag.exit

11:                                               ; preds = %4
  %12 = getelementptr i8, ptr %5, i64 4
  %.val.i = load i32, ptr %12, align 4
  %13 = lshr i32 %.val.i, 24
  br label %lean_obj_tag.exit

lean_obj_tag.exit:                                ; preds = %8, %11
  %.0.i = phi i32 [ %10, %8 ], [ %13, %11 ]
  %14 = icmp eq i32 %.0.i, 0
  br i1 %14, label %15, label %33

15:                                               ; preds = %lean_obj_tag.exit
  %16 = ptrtoint ptr %0 to i64
  %17 = and i64 %16, 1
  %.not60 = icmp eq i64 %17, 0
  br i1 %.not60, label %18, label %lean_dec.exit28

18:                                               ; preds = %15
  %19 = load i32, ptr %0, align 4, !tbaa !8
  %20 = icmp sgt i32 %19, 1
  br i1 %20, label %21, label %23, !prof !11

21:                                               ; preds = %18
  %22 = add nsw i32 %19, -1
  store i32 %22, ptr %0, align 4, !tbaa !8
  br label %lean_dec.exit28

23:                                               ; preds = %18
  %.not.i = icmp eq i32 %19, 0
  br i1 %.not.i, label %lean_dec.exit28, label %24

24:                                               ; preds = %23
  tail call void @lean_dec_ref_cold(ptr noundef nonnull %0) #6
  br label %lean_dec.exit28

lean_dec.exit28:                                  ; preds = %24, %23, %21, %15
  %25 = ptrtoint ptr %3 to i64
  %26 = and i64 %25, 1
  %.not61 = icmp eq i64 %26, 0
  br i1 %.not61, label %27, label %lean_inc.exit25

27:                                               ; preds = %lean_dec.exit28
  %.val.i36 = load i32, ptr %3, align 4, !tbaa !8
  %28 = icmp sgt i32 %.val.i36, 0
  br i1 %28, label %29, label %31, !prof !11

29:                                               ; preds = %27
  %30 = add nuw i32 %.val.i36, 1
  store i32 %30, ptr %3, align 4, !tbaa !8
  br label %lean_inc.exit25

31:                                               ; preds = %27
  %.not.i37 = icmp eq i32 %.val.i36, 0
  br i1 %.not.i37, label %lean_inc.exit25, label %32

32:                                               ; preds = %31
  tail call void @lean_inc_ref_cold(ptr noundef nonnull %3) #6
  br label %lean_inc.exit25

33:                                               ; preds = %lean_obj_tag.exit
  %34 = getelementptr inbounds nuw i8, ptr %5, i64 8
  %35 = load ptr, ptr %34, align 8, !tbaa !4
  %36 = ptrtoint ptr %35 to i64
  %37 = and i64 %36, 1
  %.not = icmp eq i64 %37, 0
  br i1 %.not, label %38, label %lean_inc.exit24

38:                                               ; preds = %33
  %.val.i38 = load i32, ptr %35, align 4, !tbaa !8
  %39 = icmp sgt i32 %.val.i38, 0
  br i1 %39, label %40, label %42, !prof !11

40:                                               ; preds = %38
  %41 = add nuw i32 %.val.i38, 1
  store i32 %41, ptr %35, align 4, !tbaa !8
  br label %lean_inc.exit24

42:                                               ; preds = %38
  %.not.i39 = icmp eq i32 %.val.i38, 0
  br i1 %.not.i39, label %lean_inc.exit24, label %43

43:                                               ; preds = %42
  tail call void @lean_inc_ref_cold(ptr noundef nonnull %35) #6
  br label %lean_inc.exit24

lean_inc.exit24:                                  ; preds = %43, %42, %40, %33
  br i1 %.not.i35, label %44, label %lean_dec.exit27

44:                                               ; preds = %lean_inc.exit24
  %45 = load i32, ptr %5, align 4, !tbaa !8
  %46 = icmp sgt i32 %45, 1
  br i1 %46, label %47, label %49, !prof !11

47:                                               ; preds = %44
  %48 = add nsw i32 %45, -1
  store i32 %48, ptr %5, align 4, !tbaa !8
  br label %lean_dec.exit27

49:                                               ; preds = %44
  %.not.i29 = icmp eq i32 %45, 0
  br i1 %.not.i29, label %lean_dec.exit27, label %50

50:                                               ; preds = %49
  tail call void @lean_dec_ref_cold(ptr noundef nonnull %5) #6
  br label %lean_dec.exit27

lean_dec.exit27:                                  ; preds = %50, %49, %47, %lean_inc.exit24
  %51 = getelementptr inbounds nuw i8, ptr %0, i64 16
  %52 = load ptr, ptr %51, align 8, !tbaa !4
  %53 = ptrtoint ptr %52 to i64
  %54 = and i64 %53, 1
  %.not55 = icmp eq i64 %54, 0
  br i1 %.not55, label %55, label %lean_inc.exit23

55:                                               ; preds = %lean_dec.exit27
  %.val.i41 = load i32, ptr %52, align 4, !tbaa !8
  %56 = icmp sgt i32 %.val.i41, 0
  br i1 %56, label %57, label %59, !prof !11

57:                                               ; preds = %55
  %58 = add nuw i32 %.val.i41, 1
  store i32 %58, ptr %52, align 4, !tbaa !8
  br label %lean_inc.exit23

59:                                               ; preds = %55
  %.not.i42 = icmp eq i32 %.val.i41, 0
  br i1 %.not.i42, label %lean_inc.exit23, label %60

60:                                               ; preds = %59
  tail call void @lean_inc_ref_cold(ptr noundef nonnull %52) #6
  br label %lean_inc.exit23

lean_inc.exit23:                                  ; preds = %60, %59, %57, %lean_dec.exit27
  %61 = ptrtoint ptr %0 to i64
  %62 = and i64 %61, 1
  %.not56 = icmp eq i64 %62, 0
  br i1 %.not56, label %63, label %lean_dec.exit26

63:                                               ; preds = %lean_inc.exit23
  %64 = load i32, ptr %0, align 4, !tbaa !8
  %65 = icmp sgt i32 %64, 1
  br i1 %65, label %66, label %68, !prof !11

66:                                               ; preds = %63
  %67 = add nsw i32 %64, -1
  store i32 %67, ptr %0, align 4, !tbaa !8
  br label %lean_dec.exit26

68:                                               ; preds = %63
  %.not.i31 = icmp eq i32 %64, 0
  br i1 %.not.i31, label %lean_dec.exit26, label %69

69:                                               ; preds = %68
  tail call void @lean_dec_ref_cold(ptr noundef nonnull %0) #6
  br label %lean_dec.exit26

lean_dec.exit26:                                  ; preds = %69, %68, %66, %lean_inc.exit23
  %70 = tail call ptr @lean_apply_1(ptr noundef %52, ptr noundef %35) #6
  %71 = ptrtoint ptr %70 to i64
  %72 = and i64 %71, 1
  %.not.i44 = icmp eq i64 %72, 0
  br i1 %.not.i44, label %76, label %73

73:                                               ; preds = %lean_dec.exit26
  %74 = lshr i64 %71, 1
  %75 = trunc i64 %74 to i32
  br label %lean_obj_tag.exit47

76:                                               ; preds = %lean_dec.exit26
  %77 = getelementptr i8, ptr %70, i64 4
  %.val.i46 = load i32, ptr %77, align 4
  %78 = lshr i32 %.val.i46, 24
  br label %lean_obj_tag.exit47

lean_obj_tag.exit47:                              ; preds = %73, %76
  %.0.i45 = phi i32 [ %75, %73 ], [ %78, %76 ]
  %79 = icmp eq i32 %.0.i45, 0
  br i1 %79, label %80, label %89

80:                                               ; preds = %lean_obj_tag.exit47
  %81 = ptrtoint ptr %3 to i64
  %82 = and i64 %81, 1
  %.not59 = icmp eq i64 %82, 0
  br i1 %.not59, label %83, label %lean_inc.exit25

83:                                               ; preds = %80
  %.val.i48 = load i32, ptr %3, align 4, !tbaa !8
  %84 = icmp sgt i32 %.val.i48, 0
  br i1 %84, label %85, label %87, !prof !11

85:                                               ; preds = %83
  %86 = add nuw i32 %.val.i48, 1
  store i32 %86, ptr %3, align 4, !tbaa !8
  br label %lean_inc.exit25

87:                                               ; preds = %83
  %.not.i49 = icmp eq i32 %.val.i48, 0
  br i1 %.not.i49, label %lean_inc.exit25, label %88

88:                                               ; preds = %87
  tail call void @lean_inc_ref_cold(ptr noundef nonnull %3) #6
  br label %lean_inc.exit25

89:                                               ; preds = %lean_obj_tag.exit47
  %90 = getelementptr inbounds nuw i8, ptr %70, i64 8
  %91 = load ptr, ptr %90, align 8, !tbaa !4
  %92 = ptrtoint ptr %91 to i64
  %93 = and i64 %92, 1
  %.not57 = icmp eq i64 %93, 0
  br i1 %.not57, label %94, label %lean_inc.exit

94:                                               ; preds = %89
  %.val.i51 = load i32, ptr %91, align 4, !tbaa !8
  %95 = icmp sgt i32 %.val.i51, 0
  br i1 %95, label %96, label %98, !prof !11

96:                                               ; preds = %94
  %97 = add nuw i32 %.val.i51, 1
  store i32 %97, ptr %91, align 4, !tbaa !8
  br label %lean_inc.exit

98:                                               ; preds = %94
  %.not.i52 = icmp eq i32 %.val.i51, 0
  br i1 %.not.i52, label %lean_inc.exit, label %99

99:                                               ; preds = %98
  tail call void @lean_inc_ref_cold(ptr noundef nonnull %91) #6
  br label %lean_inc.exit

lean_inc.exit:                                    ; preds = %99, %98, %96, %89
  br i1 %.not.i44, label %100, label %lean_inc.exit25

100:                                              ; preds = %lean_inc.exit
  %101 = load i32, ptr %70, align 4, !tbaa !8
  %102 = icmp sgt i32 %101, 1
  br i1 %102, label %103, label %105, !prof !11

103:                                              ; preds = %100
  %104 = add nsw i32 %101, -1
  store i32 %104, ptr %70, align 4, !tbaa !8
  br label %lean_inc.exit25

105:                                              ; preds = %100
  %.not.i33 = icmp eq i32 %101, 0
  br i1 %.not.i33, label %lean_inc.exit25, label %106

106:                                              ; preds = %105
  tail call void @lean_dec_ref_cold(ptr noundef nonnull %70) #6
  br label %lean_inc.exit25

lean_inc.exit25:                                  ; preds = %lean_inc.exit, %103, %105, %106, %80, %85, %87, %88, %lean_dec.exit28, %29, %31, %32
  %.0 = phi ptr [ %3, %32 ], [ %3, %31 ], [ %3, %29 ], [ %3, %lean_dec.exit28 ], [ %3, %88 ], [ %3, %87 ], [ %3, %85 ], [ %3, %80 ], [ %91, %106 ], [ %91, %105 ], [ %91, %103 ], [ %91, %lean_inc.exit ]
  ret ptr %.0
}